; Function Attrs: mustprogress uwtable
define noundef double @_ZNK5arrow8internal7TDigest4MeanEv(ptr noundef nonnull align 8 dereferenceable(32) %0) local_unnamed_addr #3 align 2 {
  %2 = getelementptr inbounds nuw i8, ptr %0, i64 8
  %3 = load ptr, ptr %2, align 8, !tbaa !12
  %4 = load ptr, ptr %0, align 8, !tbaa !11
  %.not.i = icmp eq ptr %3, %4
  br i1 %.not.i, label %_ZNK5arrow8internal7TDigest10MergeInputEv.exit, label %5

5:                                                ; preds = %1
  %6 = getelementptr inbounds nuw i8, ptr %0, i64 24
  %7 = load ptr, ptr %6, align 8, !tbaa !3
  tail call void @_ZN5arrow8internal7TDigest11TDigestImpl10MergeInputERSt6vectorIdSaIdEE(ptr noundef nonnull align 8 dereferenceable(124) %7, ptr noundef nonnull align 8 dereferenceable(32) %0)
  br label %_ZNK5arrow8internal7TDigest10MergeInputEv.exit

_ZNK5arrow8internal7TDigest10MergeInputEv.exit:   ; preds = %1, %5
  %8 = getelementptr inbounds nuw i8, ptr %0, i64 24
  %9 = load ptr, ptr %8, align 8, !tbaa !3
  %10 = getelementptr inbounds nuw i8, ptr %9, i64 72
  %11 = getelementptr inbounds nuw i8, ptr %9, i64 120
  %12 = load i32, ptr %11, align 8, !tbaa !17
  %13 = sext i32 %12 to i64
  %14 = getelementptr inbounds [2 x %"class.std::vector.2"], ptr %10, i64 0, i64 %13
  %.val.i = load ptr, ptr %14, align 8, !tbaa !32
  %15 = getelementptr i8, ptr %14, i64 8
  %.val8.i = load ptr, ptr %15, align 8, !tbaa !32
  %.not13.i = icmp eq ptr %.val.i, %.val8.i
  br i1 %.not13.i, label %_ZNK5arrow8internal7TDigest11TDigestImpl4MeanEv.exit, label %.lr.ph.i

.lr.ph.i:                                         ; preds = %_ZNK5arrow8internal7TDigest10MergeInputEv.exit, %.lr.ph.i
  %.015.i = phi double [ %19, %.lr.ph.i ], [ 0.000000e+00, %_ZNK5arrow8internal7TDigest10MergeInputEv.exit ]
  %.sroa.012.014.i = phi ptr [ %20, %.lr.ph.i ], [ %.val.i, %_ZNK5arrow8internal7TDigest10MergeInputEv.exit ]
  %16 = load double, ptr %.sroa.012.014.i, align 8, !tbaa !33
  %17 = getelementptr inbounds nuw i8, ptr %.sroa.012.014.i, i64 8
  %18 = load double, ptr %17, align 8, !tbaa !35
  %19 = tail call double @llvm.fmuladd.f64(double %16, double %18, double %.015.i)
  %20 = getelementptr inbounds nuw i8, ptr %.sroa.012.014.i, i64 16
  %.not.i1 = icmp eq ptr %20, %.val8.i
  br i1 %.not.i1, label %_ZNK5arrow8internal7TDigest11TDigestImpl4MeanEv.exit, label %.lr.ph.i

_ZNK5arrow8internal7TDigest11TDigestImpl4MeanEv.exit: ; preds = %.lr.ph.i, %_ZNK5arrow8internal7TDigest10MergeInputEv.exit
  %.0.lcssa.i = phi double [ 0.000000e+00, %_ZNK5arrow8internal7TDigest10MergeInputEv.exit ], [ %19, %.lr.ph.i ]
  %21 = getelementptr inbounds nuw i8, ptr %9, i64 48
  %22 = load double, ptr %21, align 8, !tbaa !24
  %23 = fcmp oeq double %22, 0.000000e+00
  %24 = fdiv double %.0.lcssa.i, %22
  %25 = select i1 %23, double 0x7FF8000000000000, double %24
  ret double %25
}